(dp1
S'show_numbers'
p2
S'all'
p3
sS'city'
p4
S'Mississippi State'
p5
sS'fax'
p6
S''
sS'roles'
p7
(lp8
S'diplomate'
p9
asS'zip'
p10
S'39762'
p11
sS'country'
p12
S'USA'
p13
sS'mi'
p14
S'K'
sS'state'
p15
S'MS'
p16
sS'show_email'
p17
S'all'
p18
sS'phone'
p19
S'662-325-4013'
p20
sS'show_address'
p21
S'all'
p22
sS'addr2'
p23
S'MSU-CVM'
p24
sS'sn'
p25
S'Claude'
p26
sS'addr1'
p27
S'250 Wise Center Drive'
p28
sS'vcode'
p29
S'505143746246'
p30
sS'degrees'
p31
S'DVM, DACVA'
p32
sS'password'
p33
S'4c347723f5fa2d09146f21bf2dfa83cd86266a35'
p34
sS'email'
p35
S'claude@cvm.msstate.edu'
p36
sS'fn'
p37
S'Andrew'
p38
s.