(dp1
S'for_hire_areas'
p2
S'France, Europe\r\nLocum internationally'
p3
sS'show_address'
p4
S'both'
p5
sS'addr2'
p6
S''
sS'addr1'
p7
S'1 Place Marin'
p8
sS'show_numbers'
p9
S'both'
p10
sS'city'
p11
S"Bretteville L'Orgueilleuse"
p12
sS'zip'
p13
S''
sS'state'
p14
S'France'
p15
sS'degrees'
p16
S'Docteur Veterinaire, DACVA'
p17
sS'show_for_hire'
p18
S'yes'
p19
sS'for_hire_services'
p20
S"Veterinary anesthesia and analgesia for small and large animals, exotic species (birds, reptiles, small mammals...): case management, CPD courses, in-house training, protocol design, equipment recommendations\r\nAcute and chronic pain medicine\r\nAcupuncture and physical rehabilitation\r\n\r\nAnesthesie veterinaire toutes especes (carnivores domestiques, equins, bovins, petits ruminants et ruminants exotiques, suides, oiseaux, reptiles, petits mammiferes domestiques, animaux sauvages): formations de type EPU, formations sur le terrain ou dans votre clinique, anesthesiste volant, conseil sur le choix de protocoles et d'equipments\r\nConsultation de la douleur\r\nAcupuncture et reeducation fonctionnelle"
p21
sS'for_hire_url'
p22
S''
sS'email'
p23
S'gwenola.touzotjourde@gmail.com'
p24
sS'vcode'
p25
S'454181993451'
p26
sS'fax'
p27
S''
sS'sec_policy'
p28
S'permissive'
p29
sS'show_email'
p30
S'all'
p31
sS'phone'
p32
S'+33 633 615144'
p33
sS'password'
p34
S'210f34fd6cf5cae49435c024484adaabf0684682'
p35
sS'fn'
p36
S'Gwenola'
p37
sS'roles'
p38
(lp39
S'diplomate'
p40
asS'country'
p41
S'France'
p42
sS'mi'
p43
S''
sS'sn'
p44
S'Touzot-Jourde'
p45
s.