(lp1
S'Eugene Steffey'
p2
aS'Andre Shih'
p3
aS'Julie Smith'
p4
aS'Janyce Seahorn'
p5
aS'Bruce Heath'
p6
aS'Bernd Driessen'
p7
aS'Eva Rioja Garcia'
p8
aS'Sophie Cuvelliez'
p9
aS'Margaret Mary McEwen'
p10
aS'Sheilah Robertson'
p11
aS'Monica Rosati'
p12
aS'Wayne McDonell'
p13
aS'Alex Valverde'
p14
aS'Khursheed Mama'
p15
aS'Cheryl Blaze'
p16
aS'Bonnie Hay Kraus'
p17
aS'Erik Hofmeister'
p18
aS'William Lumb'
p19
aS'Matt Read'
p20
a.