(dp1
S'otto.klaus@mh-hannover.de'
p2
S'kotto'
p3
sS'tamas.ambrisko@vetmeduni.ac.at'
p4
S'tambrisko'
p5
sS'pjpascoe@ucdavis.edu'
p6
S'ppascoe'
p7
sS'all11@cornell.edu'
p8
S'alooney'
p9
sS'lewis.1074@osu.edu'
p10
S'klewis'
p11
sS'bauquier@unimelb.edu.au'
p12
S'sbauquier'
p13
sS'mmlamon@vetmed.wsu.edu'
p14
S'mlamon'
p15
sS'aarnes.1@osu.edu'
p16
S'taarnes'
p17
sS'gina.aeschbacher@gmx.net'
p18
S'gaeschbacher'
p19
sS'golderf@vet.upenn.edu'
p20
S'fgolder'
p21
sS'klemke@upei.ca'
p22
S'klemke'
p23
sS'alessio.vigani@gmail.com'
p24
S'avigani'
p25
sS'eac@vetspecialists.co.uk'
p26
S'earmitage-chan'
p27
sS'ovbey@aol.com'
p28
S'dovbey'
p29
sS'smhami@vt.edu'
p30
S'sberry'
p31
sS'ctrim@uga.edu'
p32
S'ctrim'
p33
sS'mm459@cornell.edu'
p34
S'mmartin-flores'
p35
sS'emilymeg@aol.com'
p36
S'mrichey'
p37
sS'cholawat@stanford.edu'
p38
S'cpacharinsak2'
p39
sS'harvey@utk.edu'
p40
S'rharvey'
p41
sS'smithl@svm.vetmed.wisc.edu'
p42
S'lsmith'
p43
sS'baldo@cvm.msu.edu'
p44
S'cbaldo'
p45
sS'sakleine@gmail.com'
p46
S'skleine'
p47
sS'analamo.vet@gmail.com'
p48
S'adel alamo'
p49
sS'jdhanjal@vetspecialty.com'
p50
S'jdhanjal'
p51
sS'pacha003@umn.edu'
p52
S'cpacharinsak'
p53
sS'pavlisko@vt.edu'
p54
S'npavlisko'
p55
sS'gasvet@aol.com'
p56
S'hcalderwood'
p57
sS'cbraun@uga.edu'
p58
S'cbraun'
p59
sS'dr.alexander.hawley@gmail.com'
p60
S'ahawley'
p61
sS'annitone@gmail.com'
p62
S'anicholson'
p63
sS'eicker@vas.com'
p64
S'seicker'
p65
sS'orthopets@yahoo.com'
p66
S'pmich'
p67
sS'tgrubb@vetmed.wsu.edu'
p68
S'tgrubb'
p69
sS'epsteffey@ucdavis.edu'
p70
S'esteffey'
p71
sS'dsesi@aol.com'
p72
S'dsawyer'
p73
sS'christina.dart@sydney.edu.au'
p74
S'cdart'
p75
sS'rbroadstone@nc.rr.com'
p76
S'rbroadstone'
p77
sS'eva.riojagarcia@up.ac.za'
p78
S'erioja garcia'
p79
sS'mistralvet@gmail.com'
p80
S'bwright'
p81
sS'rwarren@rossvet.edu.kn'
p82
S'rwarren'
p83
sS'ana.delalamo@oregonstate.edu'
p84
S'adel alamo2'
p85
sS'cheryl.blaze@tufts.edu'
p86
S'cblaze'
p87
sS'aewagner@colostate.edu'
p88
S'awagner'
p89
sS'gwenola.touzotjourde@gmail.com'
p90
S'gtouzot-jourde'
p91
sS'tad551@mail.usask.ca'
p92
S'tduke-novakovski'
p93
sS'shannon.axiak@kkh.unibe.ch'
p94
S'saxiak flammer'
p95
sS'jwl1@cornell.edu'
p96
S'jludders'
p97
sS'jean-jacques.kona-boun@cgocable.ca'
p98
S'jkona-boun'
p99
sS'rjbrosnan@ucdavis.edu'
p100
S'rbrosnan'
p101
sS'vsalanus@uax.es'
p102
S'vsalazar'
p103
sS'englishgk01@me.com'
p104
S'ncampbell'
p105
sS'mattread@ucalgary.ca'
p106
S'mread'
p107
sS'karrasch.2@osu.edu'
p108
S'nkarrasch'
p109
sS'lsbarter@ucdavis.edu'
p110
S'lbarter'
p111
sS'aweil@purdue.edu'
p112
S'aweil'
p113
sS'wmcdonel@uoguelph.ca'
p114
S'wmcdonell'
p115
sS'jeacremer@gmx.de'
p116
S'jcremer'
p117
sS'ron.mandsager@oregonstate.edu'
p118
S'rmandsager'
p119
sS'drjulie@animalscan.org'
p120
S'jsmith'
p121
sS'elwendt@svm.vetmed.wisc.edu'
p122
S'ewendt-hornickle'
p123
sS'ricco@vt.edu'
p124
S'cricco'
p125
sS'john.hubbell@cvm.osu.edu'
p126
S'jhubbell'
p127
sS'glennpettifer@gmail.com'
p128
S'gpettifer'
p129
sS'james_bailey@cox.net'
p130
S'jbailey'
p131
sS'juaccco@gmail.com'
p132
S'jaraos'
p133
sS'mathe332@umn.edu'
p134
S'lmathews'
p135
sS'debrav711@gmail.com'
p136
S'dvoulgaris'
p137
sS'robertsons@ufl.edu'
p138
S'srobertson'
p139
sS'geoffrey.truchetti@umontreal.ca'
p140
S'gtruchetti'
p141
sS'alicia.karas@tufts.edu'
p142
S'akaras'
p143
sS'pipob@svm.vetmed.wisc.edu'
p144
S'rjohnson'
p145
sS'dcaines@uoguelph.ca'
p146
S'dcaines'
p147
sS'giacomo.gianotti@gmail.com'
p148
S'ggianotti'
p149
sS'ldonldsn@earthlink.net'
p150
S'ldonaldson'
p151
sS'tbryant@unimelb.edu.au'
p152
S'tbryant'
p153
sS'kbeaulie@uoguelph.ca'
p154
S'kbeaulieu'
p155
sS'hopkinsdvm@yahoo.com'
p156
S'ahopkins'
p157
sS'kate_medl@ncsu.edu'
p158
S'kbailey'
p159
sS'alb354@cornell.edu'
p160
S'abarton-lamb'
p161
sS'f.staffieri@veterinaria.uniba.it'
p162
S'fstaffieri'
p163
sS'jhess300@gmail.com'
p164
S'jhess'
p165
sS'james.heavner@ttuhsc.edu'
p166
S'jheavner'
p167
sS'seeler@upei.ca'
p168
S'dseeler'
p169
sS'sccp@illinois.edu'
p170
S'sclark-price'
p171
sS'cate.creighton@adelaide.edu.au'
p172
S'ccreighton'
p173
sS'rkrimins@purdue.edu'
p174
S'rkrimins'
p175
sS'gran0505@umn.edu'
p176
S'tgranone'
p177
sS'p0718201@yahoo.co.uk'
p178
S'dpang'
p179
sS'jhsoares@ucdavis.edu'
p180
S'jsoares'
p181
sS'e.drynan@murdoch.edu.au'
p182
S'edrynan'
p183
sS'deborah.grosenbaugh@merial.com'
p184
S'dgrosenbaugh'
p185
sS'rozmachon@xtra.co.nz'
p186
S'rmachon'
p187
sS'sreilly1@utk.edu'
p188
S'sreilly'
p189
sS'chohan@vetmed.wsu.edu'
p190
S'achohan'
p191
sS'dr.caniglia@hotmail.com'
p192
S'acaniglia'
p193
sS'tperez@vetmed.wsu.edu'
p194
S'tperez'
p195
sS'knolson@vet.upenn.edu'
p196
S'kolson'
p197
sS'quand003@uga.edu'
p198
S'jquandt'
p199
sS'drglow@yahoo.com'
p200
S'mglowaski'
p201
sS'drmtomasic@gmail.com'
p202
S'mtomasic'
p203
sS'bhpypendop@ucdavis.edu'
p204
S'bpypendop'
p205
sS'david.martin@pfizer.com'
p206
S'dmartin'
p207
sS'pboscan@colostate.edu'
p208
S'pboscan'
p209
sS'mdp86@cornell.edu'
p210
S'mpare'
p211
sS'marco.ruffato@tufts.edu'
p212
S'mruffato'
p213
sS'kaastel@gmail.com'
p214
S'ehofmeister'
p215
sS'carada@uwalumni.com'
p216
S'cschroeder2'
p217
sS'wilsondv@cvm.msu.edu'
p218
S'dwilson'
p219
sS'nrolfe@uoguelph.ca'
p220
S'nrolfe'
p221
sS'stephkrein@gmail.com'
p222
S'skrein'
p223
sS'dodamj@missouri.edu'
p224
S'jdodam'
p225
sS'gregg_griffenhagen@me.com'
p226
S'ggriffenhagen'
p227
sS'dfollett@garlic.com'
p228
S'dfollett'
p229
sS'jfigueir@sgu.edu'
p230
S'jfigueiredo'
p231
sS'oo2@svm.vetmed.wisc.edu'
p232
S'oo'
p233
sS'jcarter@rossvet.edu.kn'
p234
S'jcarter'
p235
sS'skeating@uoguelph.ca'
p236
S'skeating'
p237
sS'schroederc@svm.vetmed.wisc.edu'
p238
S'cschroeder'
p239
sS'mrsed@utk.edu'
p240
S'rseddighi'
p241
sS'sag@vetmed.wsu.edu'
p242
S'sgreene'
p243
sS'nguerrer@vt.edu'
p244
S'nhenao-guerrero'
p245
sS'mrosati@vetemergency.ca'
p246
S'mrosati'
p247
sS'cswanson@ncsu.edu'
p248
S'cswanson'
p249
sS'phendrix@ymail.com'
p250
S'phendrix'
p251
sS'kmama@colostate.edu'
p252
S'kmama'
p253
sS'mlepiz@cvm.tamu.edu'
p254
S'mloria lepiz'
p255
sS'thomas.riebold@oregonstate.edu'
p256
S'triebold'
p257
sS'kristen_messenger@ncsu.edu'
p258
S'kmessenger'
p259
sS'linhuic@auburn.edu'
p260
S'hlin'
p261
sS'megross@okstate.edu'
p262
S'mgross'
p263
sS'fgarcia@cvm.msu.edu'
p264
S'fgarcia-pereira'
p265
sS'maria.bellei@jcu.edu.au'
p266
S'mbellei'
p267
sS'dan.boruta@gmail.com'
p268
S'dboruta'
p269
sS'lysa_posner@ncsu.edu'
p270
S'lposner'
p271
sS'ewcolo@gmail.com'
p272
S'ewertz'
p273
sS'riggslippert@comcast.net'
p274
S'alippert'
p275
sS'lois.wetmore@tufts.edu'
p276
S'lwetmore'
p277
sS'amanda.abelson@tufts.edu'
p278
S'aabelson'
p279
sS'jpavez@ucdavis.edu'
p280
S'jpavez'
p281
sS'shartsfield@cvm.tamu.edu'
p282
S'shartsfield'
p283
sS'n.brock@telus.net'
p284
S'nbrock'
p285
sS'dr.baetge@verizon.net'
p286
S'cbaetge'
p287
sS'webb@ufl.edu'
p288
S'awebb'
p289
sS'jga85@earthlink.net'
p290
S'jadams'
p291
sS'lydclove@yahoo.com'
p292
S'llove'
p293
sS'kkellydvm@gmail.com'
p294
S'ckelly'
p295
sS'drankin@vet.k-state.edu'
p296
S'drankin'
p297
sS'tdoherty@utk.edu'
p298
S'tdoherty'
p299
sS'jaj0005@auburn.edu'
p300
S'jjohnson'
p301
sS'mcmurphy@vet.ksu.edu'
p302
S'rmcmurphy'
p303
sS'valverde@uoguelph.ca'
p304
S'avalverde'
p305
sS'lisasamsdvm@yahoo.com'
p306
S'lebner'
p307
sS'bsimondvm@yahoo.com'
p308
S'bsimon'
p309
sS'lynnekushner@comcast.net'
p310
S'lkushner'
p311
sS'kriskruse@animalscan.org'
p312
S'kkruse-elliott'
p313
sS'margie.mcewen@adelaide.edu.au'
p314
S'mmcewen'
p315
sS'nmatthews@cvm.tamu.edu'
p316
S'nmatthews'
p317
sS'makoto_asakawa@ncsu.edu'
p318
S'masakawa'
p319
sS'nacaulke@ucalgary.ca'
p320
S'ncaulkett'
p321
sS'kwegner@vet.upenn.edu'
p322
S'kwegner'
p323
sS'shafford@vetanesthesiaspecialists.com'
p324
S'hshafford'
p325
sS'mariak@alum.mit.edu'
p326
S'mkillos'
p327
sS'driessen@vet.upenn.edu'
p328
S'bdriessen'
p329
sS'culpl@svm.vetmed.wisc.edu'
p330
S'lsnyder'
p331
sS'emartinez@cvm.tamu.edu'
p332
S'emartinez'
p333
sS'jcko@purdue.edu'
p334
S'jko2'
p335
sS'sathya_chinnadurai@ncsu.edu'
p336
S'schinnadurai'
p337
sS'cfelz@iastate.edu'
p338
S'cfelz'
p339
sS'jdwilso4@gmail.com'
p340
S'jwilson'
p341
sS'adacunha@vetmed.lsu.edu'
p342
S'ada cunha'
p343
sS'jcseahorn@aol.com'
p344
S'jseahorn'
p345
sS'gcarroll@cvm.tamu.edu'
p346
S'gcarroll'
p347
sS'cegger@utk.edu'
p348
S'cegger'
p349
sS'tokiko28@gmail.com'
p350
S'tkushiro-banker'
p351
sS'shepa008@umn.edu'
p352
S'mshepard'
p353
sS'pablochi@ufl.edu'
p354
S'lpablo'
p355
sS'shannon.beazley@usask.ca'
p356
S'sbeazley'
p357
sS'patrick.burns@umontreal.ca'
p358
S'pburns'
p359
sS'brainard@uga.edu'
p360
S'bbrainard'
p361
sS'maney@uga.edu'
p362
S'jmaney'
p363
sS'cmosley@canadawestvets.com'
p364
S'cmosley'
p365
sS'bednarski.1@osu.edu'
p366
S'rbednarski'
p367
sS'ls522@cornell.edu'
p368
S'lsantos'
p369
sS'drshauna@shaunacantwell.com'
p370
S'scantwell'
p371
sS'schaskins@ucdavis.edu'
p372
S'shaskins'
p373
sS'jbornkamp@ufl.edu'
p374
S'jbornkamp'
p375
sS'claude@cvm.msstate.edu'
p376
S'aclaude'
p377
sS'smith.alison.a@gmail.com'
p378
S'asmith'
p379
sS'hodgson@vet.ksu.edu'
p380
S'dhodgson'
p381
sS'pfmoon@hotmail.com'
p382
S'pmoon- massat'
p383
sS'm.wypart@gmail.com'
p384
S'mwypart'
p385
sS'bfischer@vetspecialty.com'
p386
S'bfischer'
p387
sS'loribidwell@hotmail.com'
p388
S'lbidwell'
p389
sS'jsingsan@utk.edu'
p390
S'jsingsank'
p391
sS'graha040@umn.edu'
p392
S'lgraham'
p393
sS'plwong@ucdavis.edu'
p394
S'pwong'
p395
sS'dwilson@medvetohio.com'
p396
S'dwilson2'
p397
sS'sophie.cuvelliez@umontreal.ca'
p398
S'scuvelliez2'
p399
sS'fleetswell@aol.com'
p400
S'cmcgrath'
p401
sS'mason@vet.ksu.edu'
p402
S'dmason'
p403
sS'ddyson@uoguelph.ca'
p404
S'ddyson'
p405
sS'svhilde@joycewa.net'
p406
S'shildebrand'
p407
sS'drhat@vt.edu'
p408
S'chatfield'
p409
sS'meyer@cvm.msstate.edu'
p410
S'rmeyer'
p411
sS'anesthesiologist@veterinaryspecialistservices.com'
p412
S'kgrimm'
p413
sS'connymosley@yahoo.ca'
p414
S'cmosley2'
p415
sS'marlisrezende@yahoo.com'
p416
S'mrezende'
p417
sS'jboesch@illinois.edu'
p418
S'jboesch'
p419
s.