(dp1
S'job_dept'
p2
S'Virginia Maryland Regional College of Veterinary Medicine'
p3
sS'contact1_phone'
p4
S''
sS'exp_tuple'
p5
ctime
struct_time
p6
((I2011
I7
I1
I0
I0
I0
I4
I182
I0
t(dtRp7
sS'cv_city'
p8
S''
sS'web_link_text'
p9
S''
sS'contact1_name'
p10
S''
sS'cv_phone'
p11
S''
sS'id'
p12
S'17'
p13
sS'category'
p14
S'Technician'
p15
sS'cv_zip'
p16
S''
sS'job_inst'
p17
S'Virginia Tech'
p18
sS'contact2_email'
p19
S''
sS'contact2_name'
p20
S''
sS'posted'
p21
g6
((I2010
I12
I2
I19
I1
I57
I3
I336
I0
t(dtRp22
sS'cv_fax'
p23
S''
sS'job_title'
p24
S'Anesthesia Technician'
p25
sS'contact2_phone'
p26
S''
sS'description'
p27
S'Role Title: Veterinary Technician I\r\n\r\nPosition Responsibilities:\r\nProvides technical support to clinical faculty and senior veterinary students in regards to Large and Small Animal Anesthesia in the Veterinary Teaching Hospital. Provides primary patient care in anesthesiology during the day or evening, and/or on-call after hours, on holidays, and weekends. Performs critical care nursing procedures in the Intensive Care Unit as directed by clinical faculty and instructs senior veterinary students in technical and manipulative skills related to ICU/Critical Care during regular day shift and during after hour shifts. Schedules, performs, or assists in the performance of regular and diagnostic special procedures and electrodiagnostic procedures. Assists in other areas of the hospital as directed by supervisor.\r\n\r\nRequired Qualifications:\r\nWorking knowledge of basic nursing skills; working knowledge of basic anesthetic equipment and monitoring; ability to place intravenous catheters and to perform endotracheal intubation; ability to understand instructions; excellent communication skills; rabies prophylaxis will be required (provided by employer); Licensed Veterinary Technician (LVT) Certification.\r\n\r\nPreferred Qualifications:\r\nKnowledge of CPR highly desired; experience in anesthesia and/or intensive care in a veterinary medical setting; experience in special procedures and electrodiagnostics.\r\n\r\nEmployment Conditions:\r\nMust have a criminal background check; Emergency Personnel - health & safety related\r\n\r\nHow to Apply for this Job:\r\n<a href="https://listings.jobs.vt.edu/applicants/jsp/shared/position/JobDetails_css.jsp?postingId=453436">https://listings.jobs.vt.edu/applicants/jsp/shared/position/JobDetails_css.jsp?postingId=453436</a>\r\n\r\nEmployment Category:\r\nStaff (Salary)\r\n\r\nAppointment Type:\r\nRestricted\r\n\r\nAcademic Year or Calendar Year:\r\nCalendar Year\r\n\r\nPercent Employment:\r\nFull Time\r\n\r\nPay Band (Classified Jobs Only):\r\n4\r\n\r\nDepartment: Vet. Medicine Teaching Hospital\r\nCollege / Sr. Management: College of Veterinary Medicine\r\nJob Location: Blacksburg\r\n\r\nII. Search Plan\r\nJob Posting Date: 09-24-2010\r\nReview Begin Date\r\nJob Close Date (If Applicable): 10-11-2010\r\nRestricted to University Employees Only?: No\r\n\r\nChristy Lowe\r\nVirginia Tech\r\nDepartment of Human Resources\r\nSouthgate Center (0318)\r\nBlacksburg, VA 24060\r\n(540) 231-7762\r\n'
p28
sS'cv_instructions'
p29
S''
sS'cv_title'
p30
S''
sS'expires'
p31
(lp32
S'7'
aS'1'
aS'2011'
p33
asS'cv_name'
p34
S''
sS'cv_state'
p35
S''
sS'cv_addr1'
p36
S''
sS'cv_addr3'
p37
S''
sS'cv_addr2'
p38
S''
sS'cv_country'
p39
S''
sS'cv_email'
p40
S''
sS'web_link_url'
p41
S''
sS'contact1_email'
p42
S''
s.