(dp1
S'job_dept'
p2
S' Department of Veterinary Clinical Sciences'
p3
sS'contact1_phone'
p4
S'+44 (0)1707 666524'
p5
sS'exp_tuple'
p6
ctime
struct_time
p7
((I2011
I2
I27
I0
I0
I0
I6
I58
I0
t(dtRp8
sS'cv_city'
p9
S''
sS'web_link_text'
p10
S'Royal Veterinary College'
p11
sS'contact1_name'
p12
S'Dr. Hatim Alibhai'
p13
sS'cv_phone'
p14
S''
sS'id'
p15
S'22'
p16
sS'category'
p17
S'Residency'
p18
sS'cv_zip'
p19
S''
sS'job_inst'
p20
S'Royal Veterinary College'
p21
sS'contact2_email'
p22
S''
sS'contact2_name'
p23
S''
sS'posted'
p24
g7
((I2011
I1
I27
I18
I1
I22
I3
I27
I0
t(dtRp25
sS'cv_fax'
p26
S''
sS'job_title'
p27
S'Senior Clinical Training Scholarship in Veterinary Anaesthesia'
p28
sS'contact2_phone'
p29
S''
sS'description'
p30
S'Senior Clinical Training Scholarship in Veterinary Anaesthesia\r\n\r\nDepartment of Veterinary Clinical Sciences\r\nLocation: Hawkshead Campus, Nr Potters Bar\r\nStipend: The tax free stipend for the Senior Scholarship will start at \xc2\xa314,902 per annum, increasing by annual increments to \xc2\xa316,222 and will be continued subject to satisfactory annual assessment.\r\n\r\nClosing date for applications:\r\n31st January 2011 (Now extended to 11th February 2011)\r\n\r\nInterview Date:\r\nIt is anticipated that interviews will be held during week commencing 7th March 2011.\r\n\r\nApplications are invited for Senior Clinical Training Scholarships (residencies) in veterinary anaesthesia. This is a three-year postgraduate programme involving supervised clinical work and applied clinical research. Scholars will receive specialised training in the relevant discipline while working within the College\'s hospitals and will be expected to prepare to sit the examination for membership of the relevant specialty European College of Veterinary Anaesthesia and Analgesia. Scholars will also be enrolled onto a Masters of Veterinary Medicine (MVetMed) programme. In addition, they will be involved in an area of clinical research and will be expected to submit for publication manuscripts based on their research work at the end of the three-year programme.\r\n\r\nAll Scholarships are open to veterinary graduates holding a qualification registrable with the Royal College of Veterinary Surgeons. The tax free stipend for the Senior Scholarship will start at \xc2\xa314,902 per annum, increasing by annual increments to \xc2\xa316,222 and will be continued subject to satisfactory annual assessment.  Ideally, Scholarships will commence on Monday 4th July 2011 but alternative start dates may be agreed under exceptional circumstances.\r\n\r\nFor further information about the SCTS programmes and for details on how to apply online, please visit the <a href= "http://www.rvc.ac.uk/Postgraduate/CTS"> website</a>.\r\n\r\nFor informal discussions and further information on these scholarships please contact:\r\nDr. Hatim Alibhai on +44 (0)1707 666524 or email: <a href ="mail to:hikalibhai@rvc.ac.uk">hikalibhai@rvc.ac.uk</a>\r\nPlease quote the reference number (Ref: CTS/SAN/11) on all applications and queries. Short-listed candidates for all scholarships will normally be notified one week before the interview date.'
p31
sS'cv_instructions'
p32
S''
sS'cv_title'
p33
S''
sS'expires'
p34
(lp35
S'2'
aS'27'
p36
aS'2011'
p37
asS'cv_name'
p38
S''
sS'cv_state'
p39
S''
sS'cv_addr1'
p40
S''
sS'cv_addr3'
p41
S''
sS'cv_addr2'
p42
S''
sS'cv_country'
p43
S''
sS'cv_email'
p44
S''
sS'web_link_url'
p45
S'http://www.rvc.ac.uk/Postgraduate/CTS'
p46
sS'contact1_email'
p47
S'hikalibhai@rvc.ac.uk'
p48
s.