(dp1
S'job_dept'
p2
S'Department of Clinical Sciences'
p3
sS'contact1_phone'
p4
S''
sS'exp_tuple'
p5
ctime
struct_time
p6
((I2011
I7
I31
I0
I0
I0
I6
I212
I0
t(dtRp7
sS'cv_city'
p8
S'Mississippi State'
p9
sS'web_link_text'
p10
S''
sS'contact1_name'
p11
S''
sS'cv_phone'
p12
S''
sS'id'
p13
S'23'
p14
sS'category'
p15
S'Residency'
p16
sS'cv_zip'
p17
S'39762'
p18
sS'job_inst'
p19
S'Mississippi State University College of Veterinary Medicine'
p20
sS'contact2_email'
p21
S''
sS'contact2_name'
p22
S''
sS'posted'
p23
g6
((I2011
I3
I18
I18
I24
I59
I4
I77
I1
t(dtRp24
sS'cv_fax'
p25
S''
sS'job_title'
p26
S'Residency in Veterinary Anesthesiology'
p27
sS'contact2_phone'
p28
S''
sS'description'
p29
S'The Department of Clinical Sciences at the Mississippi State University College of Veterinary Medicine is accepting applications for a Residency in Veterinary Anesthesiology.This 3-year training program is designed to fulfill the requirements for board certification eligibility by the American College of Veterinary Anesthesiologists (ACVA). The resident will work under the supervision of ACVA diplomates.    \r\n\r\nEssential Duties and Responsibilities: The resident will gain experience in clinical anesthetic and pain management practice, clinical and didactic teaching, emergency service, and research. The schedule is determined by the service chief and complies with ACVA requirements. Residents will also complete a Master of Science Degree as part of their training. Participation and attendance in clinical rounds, conferences, educational programs, and teaching assignments is expected.  \r\n  \r\nMinimum Qualifications:  DVM or equivalent degree, one year internship or practice equivalent.    \r\n\r\nAll applications must be made online at <a href= "http://www.jobs.msstate.edu">www.jobs.msstate.edu</a> Reference PARF Number 5720\r\n\r\nQualified applicants should send official transcripts, 3 letters of reference and CV to: Dr. Ron McLaughlin, Head Department of Clinical Sciences\r\nCollege of Veterinary Medicine \r\nPO Box 6100\r\nMississippi State, MS 39762    \r\n\r\nContact E-mail: <a href="mailto:mclaughlin@cvm.msstate.edu">mclaughlin@cvm.msstate.edu </a>   \r\nContact Phone:  662-325-1266    \r\nPosition Open Date:  01-27-2011    \r\nPosition Close Date:  Open Until Filled  \r\nPosition Category:  Professional    \r\nTenure Track Status:  Non Tenure-Track    \r\nPosition Type:  Regular    \r\nFull-Time/Part-Time:  Full-Time    \r\n12-month/9-month:  12 Month    \r\nPay Grade:  UC    '
p30
sS'cv_instructions'
p31
S'Qualified applicants should apply online <a href= "http://www.jobs.msstate.edu">www.jobs.msstate.edu</a> Reference PARF Number 5720 and send official transcripts, 3 letters of reference and CV to:'
p32
sS'cv_title'
p33
S'Head Department of Clinical Sciences'
p34
sS'expires'
p35
(lp36
S'7'
aS'31'
p37
aS'2011'
p38
asS'cv_name'
p39
S'Dr. Ron McLaughlin'
p40
sS'cv_state'
p41
S'MS'
p42
sS'cv_addr1'
p43
S'College of Veterinary Medicine'
p44
sS'cv_addr3'
p45
S''
sS'cv_addr2'
p46
S'PO Box 6100'
p47
sS'cv_country'
p48
S''
sS'cv_email'
p49
S'mclaughlin@cvm.msstate.edu'
p50
sS'web_link_url'
p51
S''
sS'contact1_email'
p52
S''
s.