(dp1
S'job_dept'
p2
S'Department of Clinical Sciences'
p3
sS'contact1_phone'
p4
S'662-325-1266'
p5
sS'exp_tuple'
p6
ctime
struct_time
p7
((I2011
I3
I30
I0
I0
I0
I2
I89
I0
t(dtRp8
sS'cv_city'
p9
S''
sS'web_link_text'
p10
S''
sS'contact1_name'
p11
S'Dr. Ron McLaughlin'
p12
sS'cv_phone'
p13
S''
sS'id'
p14
S'25'
p15
sS'category'
p16
S'Technician'
p17
sS'cv_zip'
p18
S''
sS'job_inst'
p19
S'Mississippi State University College of Veterinary Medicine'
p20
sS'contact2_email'
p21
S''
sS'contact2_name'
p22
S''
sS'posted'
p23
g7
((I2011
I2
I12
I17
I3
I58
I5
I43
I0
t(dtRp24
sS'cv_fax'
p25
S''
sS'job_title'
p26
S'Anesthesia Technician'
p27
sS'contact2_phone'
p28
S''
sS'description'
p29
S'The Department of Clinical Sciences at the Mississippi State University College of Veterinary Medicine is accepting applications for an Anesthesia Technician. The position function is to administer anesthetics to render patients insensitive to pain during surgical and other medical procedures, supervise/teach students in the practice of anesthesia, maintain equipment and keep related records.  \r\n\r\nEssential duties and responsibilities include: Set up and prepare anesthesia equipment prior to surgeries or other procedures. Set up appropriate monitoring equipment. Responsible for ensuring that anesthesia pharmacy supplies are adequately stocked and that all drugs are secure and accounted for. Instruct veterinary and veterinary technician students on correct procedures for administering anesthesia, case management, assign grades to students based on performance. Supervise and assist students during the preanesthetic period, during anesthesia inducement and during patient recovery from anesthesia. Perform anesthesia procedures, including examining, preparing and positioning patients, interpreting blood work and chemistries, selecting drug regime and administering anesthetics. Assist with the administering of Educational Commission for Foreign Veterinary Graduates (ECFVG) examination; evaluate participants based on performance. Maintain records of drugs used and report appropriate charges. Stock and maintain anesthesia machines. Perform related duties as assigned.   \r\n\r\nMinimum qualifications: High School diploma or equivalent. Certification as a Veterinary Technician or Registered Nurse. Four years related experience. Ability to work with all kinds of animals. Working knowledge of techniques of restraint, sedation, anesthesia and patient monitoring. \r\n-or- \r\nAny equivalent combination of related experience and/or education approved by the Department of Human Resources Management. \r\n\r\nAll applications must be made online at <a href="http://www.jobs.msstate.edu">http://www.jobs.msstate.edu</a>. \r\nReference PARF Number 5718\r\n\r\nDr. Ron McLaughlin, Head Department of Clinical Sciences, \r\nCollege of Veterinary Medicine \r\nPO Box 6100\r\nMississippi State, MS 39762    \r\n\r\nContact E-mail:  mclaughlin@cvm.msstate.edu    \r\nContact Phone:  662-325-1266    \r\nPosition Open Date:  01-25-2011    \r\nPosition Close Date:  02-15-2011 (or until filled)\r\nPosition Category:  Support Staff  \r\nTenure Track Status: N/A\r\nPosition Type:  Regular    \r\nFull-Time/Part-Time:  Full-Time    \r\n12-month/9-month:  12 Month    \r\nPay Grade:  ii\r\nMinimum Pay - Support Staff only $26,739\r\nRestricted Clause None\r\nPARF number 5718\r\n'
p30
sS'cv_instructions'
p31
S'All applications must be made online at <a href= "http://www.jobs.msstate.edu">http://www.jobs.msstate.edu</a>. '
p32
sS'cv_title'
p33
S''
sS'expires'
p34
(lp35
S'3'
aS'30'
p36
aS'2011'
p37
asS'cv_name'
p38
S''
sS'cv_state'
p39
S''
sS'cv_addr1'
p40
S''
sS'cv_addr3'
p41
S''
sS'cv_addr2'
p42
S''
sS'cv_country'
p43
S''
sS'cv_email'
p44
S''
sS'web_link_url'
p45
S''
sS'contact1_email'
p46
S'mclaughlin@cvm.msstate.edu'
p47
s.