(dp1
S'job_dept'
p2
S'Department of Companion Animal Clinical Studies'
p3
sS'contact1_phone'
p4
S''
sS'exp_tuple'
p5
ctime
struct_time
p6
((I2012
I1
I1
I0
I0
I0
I6
I1
I0
t(dtRp7
sS'cv_city'
p8
S''
sS'web_link_text'
p9
S''
sS'contact1_name'
p10
S'Prof. Johan Schoeman'
p11
sS'cv_phone'
p12
S''
sS'id'
p13
S'29'
p14
sS'category'
p15
S'Institution, Industry or Private Practice'
p16
sS'cv_zip'
p17
S''
sS'job_inst'
p18
S'University of Pretoria (South Africa)'
p19
sS'contact2_email'
p20
S''
sS'contact2_name'
p21
S''
sS'posted'
p22
g6
((I2011
I5
I23
I11
I6
I54
I0
I143
I1
t(dtRp23
sS'cv_fax'
p24
S''
sS'job_title'
p25
S'Senior Lecturer position in Anaesthesiology'
p26
sS'contact2_phone'
p27
S''
sS'description'
p28
S'The Department of Companion Animal Clinical Studies at the University of Pretoria (South Africa), invites applications for a permanent Senior Lecturer position in Anaesthesiology. \r\n\r\nThe successful applicant will join a team of 3 Anaesthesiologists (1 Dipl. ECVAA and 1 Dipl. ACVA), and a total of 35 veterinarians, with 10 European or American Diplomates in different specialties. The Faculty has a \xe2\x80\x9cstate-of-the-art\xe2\x80\x9d Equine and Small Animal Hospital, which includes 2 equine surgery theatres and 5 small animal surgery theaters, 3 fully padded induction/recovery equine stalls, computed radiography, scintigraphy, CT, treadmill, endoscopic, arthroscopic and laparoscopic equipment, diode laser, 30 hospitalization equine stalls and numerous small animal hospitalization facilities, including a critical care unit.\r\n\r\nThe Faculty of Veterinary Science is located at Onderstepoort, in the northeastern part of Pretoria. Pretoria has a population of approximately 2 million, and is situated 70 km north of Johannesburg. Several game reserves are nearby, including the Kruger National park (400 km away), which gives plenty of options for outdoor activities and leisure. \r\n\r\nFor more details about the position and application procedure please\r\nfollow this <a href="https://www.up.ac.za/psp/career/EMPLOYEE/HRMS/c/HRS_HRAM.HRS_CE.GBL">link</a>.\r\n\r\nFor enquiries about the position please e-mail <a href="mailto:Johan.Schoeman@up.ac.za"> Prof. Johan Schoeman </a>.\r\n '
p29
sS'cv_instructions'
p30
S''
sS'cv_title'
p31
S''
sS'expires'
p32
(lp33
S'1'
aS'1'
aS'2012'
p34
asS'cv_name'
p35
S''
sS'cv_state'
p36
S''
sS'cv_addr1'
p37
S''
sS'cv_addr3'
p38
S''
sS'cv_addr2'
p39
S''
sS'cv_country'
p40
S''
sS'cv_email'
p41
S''
sS'web_link_url'
p42
S''
sS'contact1_email'
p43
S'Johan.Schoeman@up.ac.za'
p44
s.