(dp1
S'job_dept'
p2
S''
sS'contact1_phone'
p3
S''
sS'exp_tuple'
p4
ctime
struct_time
p5
((I2012
I1
I1
I0
I0
I0
I6
I1
I0
t(dtRp6
sS'cv_city'
p7
S''
sS'web_link_text'
p8
S''
sS'contact1_name'
p9
S''
sS'cv_phone'
p10
S'617-522-7282'
p11
sS'id'
p12
S'31'
p13
sS'category'
p14
S'Institution, Industry or Private Practice'
p15
sS'cv_zip'
p16
S''
sS'job_inst'
p17
S'Angell Animal Medical Center'
p18
sS'contact2_email'
p19
S''
sS'contact2_name'
p20
S''
sS'posted'
p21
g5
((I2011
I6
I16
I16
I55
I16
I3
I167
I1
t(dtRp22
sS'cv_fax'
p23
S'617-522-0733'
p24
sS'job_title'
p25
S'Anesthesiologist'
p26
sS'contact2_phone'
p27
S''
sS'description'
p28
S'The Angell Animal Medical Center (AAMC) in Boston, MA is seeking applicants for a staff position in anesthesiology. . The AAMC opened its doors in 1915 and cares for approximately 50,000 animals a year. Angell is part of the MSPCA, one of the oldest and most respected humane organizations in the world.\r\n\r\nWe are seeking a board eligible or board certified anesthesiologist. The qualified individual will be responsible for all aspects of the anesthesia service at Angell with a focus on training technical staff and oversight to development of anesthesia protocols. Additionally, the individual will participate in mentoring and training of residents and interns, and provide consultations to the Angell veterinary staff.\r\n\r\nFor further information, please email or call us and we will send you a copy of the full position advertisement and the job description. Direct your inquiries to Dr. Jennifer Holm, Chief Medical Officer at 617-522-7282 \r\nor fax 617-522-0733, or e-mail <a href="mailto:jholm@mspca.org">jholm@mspca.org</a>.\r\n\r\nThank you for your interest!\r\nLisa Moses, VMD, DACVIM, CVMA\r\nPain Medicine Service\r\nAngell AMC'
p29
sS'cv_instructions'
p30
S''
sS'cv_title'
p31
S'Chief Medical Officer'
p32
sS'expires'
p33
(lp34
S'1'
aS'1'
aS'2012'
p35
asS'cv_name'
p36
S'Dr. Jennifer Holm'
p37
sS'cv_state'
p38
S''
sS'cv_addr1'
p39
S''
sS'cv_addr3'
p40
S''
sS'cv_addr2'
p41
S''
sS'cv_country'
p42
S''
sS'cv_email'
p43
S'jholm@mspca.org'
p44
sS'web_link_url'
p45
S''
sS'contact1_email'
p46
S''
s.