(dp1
S'job_dept'
p2
S'Department of Surgery and Anaesthesia of Domestic Animals'
p3
sS'contact1_phone'
p4
S''
sS'exp_tuple'
p5
ctime
struct_time
p6
((I2011
I9
I1
I0
I0
I0
I3
I244
I0
t(dtRp7
sS'cv_city'
p8
S''
sS'web_link_text'
p9
S''
sS'contact1_name'
p10
S''
sS'cv_phone'
p11
S''
sS'id'
p12
S'32'
p13
sS'category'
p14
S'Institution, Industry or Private Practice'
p15
sS'cv_zip'
p16
S''
sS'job_inst'
p17
S'Ghent University'
p18
sS'contact2_email'
p19
S''
sS'contact2_name'
p20
S''
sS'posted'
p21
g6
((I2011
I6
I24
I16
I59
I51
I4
I175
I1
t(dtRp22
sS'cv_fax'
p23
S''
sS'job_title'
p24
S'Anaesthetist'
p25
sS'contact2_phone'
p26
S''
sS'description'
p27
S'The Department of Surgery and Anaesthesia of Domestic Animals, Faculty of Veterinary Medicine, Ghent University invites applications for a position as fulltime veterinary anaesthetist. About 50-60% of the time would be spent in anaesthesia of pigs for experimental work, the other 40-50% in clinical anaesthesia of large animal patients (mainly horses and some ruminants).\r\n\r\nCandidates must have a DVM or equivalent degree. Experience with anaesthesia of large animals, including pigs, is desirable. \r\n\r\nThe candidate would preferably start on the 1st of August 2011 (or the 1st\r\nof September at the latest).\r\n\r\nInterested candidates can contact <a href="mailto:Stijn.Schauvliege@UGent.be"> Prof. Stijn Schauvliege</a>  or <a href="mailto:Frank.Gasthuys@UGent.be"> Prof. Frank.Gasthuys</a>.\r\n'
p28
sS'cv_instructions'
p29
S''
sS'cv_title'
p30
S''
sS'expires'
p31
(lp32
S'9'
aS'1'
aS'2011'
p33
asS'cv_name'
p34
S''
sS'cv_state'
p35
S''
sS'cv_addr1'
p36
S''
sS'cv_addr3'
p37
S''
sS'cv_addr2'
p38
S''
sS'cv_country'
p39
S''
sS'cv_email'
p40
S''
sS'web_link_url'
p41
S''
sS'contact1_email'
p42
S''
s.