(dp1
S'job_dept'
p2
S'Section of Anesthesia and  Pain Management'
p3
sS'contact1_phone'
p4
S''
sS'exp_tuple'
p5
ctime
struct_time
p6
((I2011
I11
I1
I0
I0
I0
I1
I305
I0
t(dtRp7
sS'cv_city'
p8
S''
sS'web_link_text'
p9
S''
sS'contact1_name'
p10
S''
sS'cv_phone'
p11
S'352-294-4340'
p12
sS'id'
p13
S'33'
p14
sS'category'
p15
S'Institution, Industry or Private Practice'
p16
sS'cv_zip'
p17
S''
sS'job_inst'
p18
S' College of Veterinary Medicine, University of Florida'
p19
sS'contact2_email'
p20
S''
sS'contact2_name'
p21
S''
sS'posted'
p22
g6
((I2011
I6
I28
I15
I40
I53
I1
I179
I1
t(dtRp23
sS'cv_fax'
p24
S''
sS'job_title'
p25
S'Clinical Assistant/Associate Professor'
p26
sS'contact2_phone'
p27
S''
sS'description'
p28
S'The Section of Anesthesia and  Pain Management, College of Veterinary Medicine, University of Florida invites applications for a clinical assistant/associate professor position. The major responsibility of the position is clinical instruction and service in the College of Veterinary Medicine Veterinary Hospitals. The candidate is also expected to initiate and participate in independent and collaborative clinical research projects.  \r\n\r\nCandidates must have a DVM or equivalent degree. Board certification by the ACVA is preferred; however, completion of ACVA-approved residency or board eligibility by ACVA will be considered. Candidates must also possess excellent interpersonal, organizational, communication, and teaching skills.   \r\n\r\nReview of application will begin on September 1, 2011 and will continue until the position is filled. Those who are interested should contact <a href="mailto:pablochi@ufl.edu"> Dr. Luisito Pablo </a>.\r\n     '
p29
sS'cv_instructions'
p30
S''
sS'cv_title'
p31
S''
sS'expires'
p32
(lp33
S'11'
p34
aS'1'
aS'2011'
p35
asS'cv_name'
p36
S'Luisito Pablo, DVM, MS, DACVA'
p37
sS'cv_state'
p38
S''
sS'cv_addr1'
p39
S'Section of Anesthesia and Pain Management'
p40
sS'cv_addr3'
p41
S'University of Florida'
p42
sS'cv_addr2'
p43
S'College of Veterinary Medicine'
p44
sS'cv_country'
p45
S''
sS'cv_email'
p46
S'pablochi@ufl.edu'
p47
sS'web_link_url'
p48
S''
sS'contact1_email'
p49
S''
s.