(dp1
S'job_dept'
p2
S'Clinical Services Division'
p3
sS'contact1_phone'
p4
S''
sS'exp_tuple'
p5
ctime
struct_time
p6
((I2011
I8
I1
I0
I0
I0
I0
I213
I0
t(dtRp7
sS'cv_city'
p8
S''
sS'web_link_text'
p9
S'Please apply online'
p10
sS'contact1_name'
p11
S''
sS'cv_phone'
p12
S''
sS'id'
p13
S'36'
p14
sS'category'
p15
S'Technician'
p16
sS'cv_zip'
p17
S''
sS'job_inst'
p18
S'Royal Veterinary College'
p19
sS'contact2_email'
p20
S''
sS'contact2_name'
p21
S''
sS'posted'
p22
g6
((I2011
I7
I16
I14
I53
I36
I5
I197
I1
t(dtRp23
sS'cv_fax'
p24
S''
sS'job_title'
p25
S'Anaesthesia Nurse'
p26
sS'contact2_phone'
p27
S''
sS'description'
p28
S'We currently have an exciting opportunity for a qualified nurse/tech to work at the Royal Veterinary College, one of Europe\'s leading Veterinary Hospitals. This position is ideal for a nurse/tech keen to develop their nursing career and specialise in all disciplines of Anaesthesia nursing.\r\n\r\nWorking as part of a team of specialist Anaesthesia Clinicians and Nurses you will be involved in a range of interesting and challenging, cases assisting with various diagnostics modalities and surgical procedures.\r\n\r\nFull internal anaesthesia nursing training can be given. \r\n\r\nFor an informal discussion about this role, please contact Susanna Taylor on +441707 666366 or by <a href="mailto:sntaylor@rvc.ac.uk"> email </a>\r\n\r\nWe offer a generous reward package including a final salary pension scheme.\r\n\r\nPlease note; the successful candidate must be registered as a RVN with the Royal College of Veterinary Surgeons.\r\n\r\nClinical Services Division (Queen Mother Hospital for Animals) \r\nClosing Date:   Sunday 31 July 2011\r\nInterview Date:   Tuesday 16 August 2011\r\nReference:   CSD-0096-11\r\n'
p29
sS'cv_instructions'
p30
S''
sS'cv_title'
p31
S''
sS'expires'
p32
(lp33
S'8'
aS'1'
aS'2011'
p34
asS'cv_name'
p35
S''
sS'cv_state'
p36
S''
sS'cv_addr1'
p37
S''
sS'cv_addr3'
p38
S''
sS'cv_addr2'
p39
S''
sS'cv_country'
p40
S''
sS'cv_email'
p41
S''
sS'web_link_url'
p42
S'http://www.rvc.ac.uk/jobs '
p43
sS'contact1_email'
p44
S''
s.