(dp1
S'job_dept'
p2
S''
sS'contact1_phone'
p3
S''
sS'exp_tuple'
p4
ctime
struct_time
p5
((I2011
I9
I1
I0
I0
I0
I3
I244
I0
t(dtRp6
sS'cv_city'
p7
S''
sS'web_link_text'
p8
S'University College Dublin'
p9
sS'contact1_name'
p10
S''
sS'cv_phone'
p11
S''
sS'id'
p12
S'38'
p13
sS'category'
p14
S'Institution, Industry or Private Practice'
p15
sS'cv_zip'
p16
S''
sS'job_inst'
p17
S'University College Dublin'
p18
sS'contact2_email'
p19
S''
sS'contact2_name'
p20
S''
sS'posted'
p21
g5
((I2011
I7
I27
I15
I11
I12
I2
I208
I1
t(dtRp22
sS'cv_fax'
p23
S''
sS'job_title'
p24
S'Lecturer in Veterinary Anaesthesia'
p25
sS'contact2_phone'
p26
S''
sS'description'
p27
S'University College Dublin, Ireland is pleased to advertise a vacancy for a 3 year full time Lecturer in Veterinary Anaesthesia.  The purpose of this academic post is to provide undergraduate and postgraduate teaching in the discipline of Veterinary Anaesthesia, to provide the anaesthesia service for the University Veterinary Hospital, and to actively contribute to the research output, operation and general academic responsibilities of the Section, School and College.  It is expected that clinical service and related instruction will contribute approximately 50% of the appointee\xe2\x80\x99s effort with the remainder being devoted to didactic teaching, research / scholarly activity and other general academic activities.  The appointee will be expected to participate in the out-of-hours rota.  \r\n\r\n2011 Salary Scale \xe2\x82\xac31,820 - \xe2\x82\xac73,307 p.a. \r\n\r\nAppointment on scale will be made commensurate with qualification and experience.\r\n\r\nClosing date is 31st August 2011.  \r\nElectronic submissions only will be accepted.\r\n\r\nFull details of the vacancy, including application procedure, may be found at <a href="http://www.ucd.ie/vacancies">www.ucd.ie/vacancies</a>  and search under academic.  The reference is 004656. \r\n\r\nInformal enquiries may be made to \r\nMrs. Lynne Hughes MVB, DVA, DiplECVAA, FCARCSI, MRCVS\r\nEmail: <a href="mailto:Lynne.Hughes@ucd.ie">Lynne.Hughes@ucd.ie</a>\r\nTelephone: +353 1 716 6057\r\n'
p28
sS'cv_instructions'
p29
S''
sS'cv_title'
p30
S''
sS'expires'
p31
(lp32
S'9'
aS'1'
aS'2011'
p33
asS'cv_name'
p34
S''
sS'cv_state'
p35
S''
sS'cv_addr1'
p36
S''
sS'cv_addr3'
p37
S''
sS'cv_addr2'
p38
S''
sS'cv_country'
p39
S''
sS'cv_email'
p40
S''
sS'web_link_url'
p41
S'http://www.ucd.ie/vacancies'
p42
sS'contact1_email'
p43
S''
s.