(dp1
S'job_dept'
p2
S''
sS'contact1_phone'
p3
S'650-480-2001 '
p4
sS'exp_tuple'
p5
ctime
struct_time
p6
((I2011
I11
I1
I0
I0
I0
I1
I305
I0
t(dtRp7
sS'cv_city'
p8
S''
sS'web_link_text'
p9
S''
sS'contact1_name'
p10
S'Kris Kruse-Elliott'
p11
sS'cv_phone'
p12
S''
sS'id'
p13
S'39'
p14
sS'category'
p15
S'Institution, Industry or Private Practice'
p16
sS'cv_zip'
p17
S''
sS'job_inst'
p18
S'Animal Scan'
p19
sS'contact2_email'
p20
S'jim@animalscan.org'
p21
sS'contact2_name'
p22
S'Jim Stuppino'
p23
sS'posted'
p24
g6
((I2011
I7
I27
I15
I18
I34
I2
I208
I1
t(dtRp25
sS'cv_fax'
p26
S''
sS'job_title'
p27
S'Anesthesiologist'
p28
sS'contact2_phone'
p29
S''
sS'description'
p30
S'AnimalScan is currently recruiting anesthesiologists for full time positions at our new centers.   Our newest location, Baltimore, will open mid-September; with more locations soon to follow.  \r\n\r\nQualifications include board certified or board eligible in veterinary anesthesia and clearance to work around a 1.5T superconducting magnet.  AnimalScan is a referral only MRI center that provides all the benefits of a full diagnostic MRI center to veterinarians.  All centers are staffed with certified MRI technologist, veterinary technician, office manager and board certified veterinary anesthesiologist who serves as medical director for the center.  Centers are equipped with state of the art anesthesia equipment (machines, MRI compatible monitors).  All scans are interpreted and reported by veterinary radiologists.'
p31
sS'cv_instructions'
p32
S''
sS'cv_title'
p33
S''
sS'expires'
p34
(lp35
S'11'
p36
aS'1'
aS'2011'
p37
asS'cv_name'
p38
S''
sS'cv_state'
p39
S''
sS'cv_addr1'
p40
S''
sS'cv_addr3'
p41
S''
sS'cv_addr2'
p42
S''
sS'cv_country'
p43
S''
sS'cv_email'
p44
S''
sS'web_link_url'
p45
S''
sS'contact1_email'
p46
S'kriskruse@animalscan.org'
p47
s.