(dp1
S'job_dept'
p2
S''
sS'contact1_phone'
p3
S''
sS'exp_tuple'
p4
ctime
struct_time
p5
((I2011
I11
I1
I0
I0
I0
I1
I305
I0
t(dtRp6
sS'cv_city'
p7
S''
sS'web_link_text'
p8
S'To apply, please apply online '
p9
sS'contact1_name'
p10
S''
sS'cv_phone'
p11
S''
sS'id'
p12
S'42'
p13
sS'category'
p14
S'Institution, Industry or Private Practice'
p15
sS'cv_zip'
p16
S''
sS'job_inst'
p17
S'Novartis Tiergesundheit AG'
p18
sS'contact2_email'
p19
S''
sS'contact2_name'
p20
S''
sS'posted'
p21
g5
((I2011
I8
I25
I14
I55
I48
I3
I237
I1
t(dtRp22
sS'cv_fax'
p23
S''
sS'job_title'
p24
S'Group Leader Companion Animal Research'
p25
sS'contact2_phone'
p26
S''
sS'description'
p27
S'Think what\xe2\x80\x99s possible.\r\n\r\nA global leader in animal health, Novartis has one of the most exciting product ranges and pipelines in the industry today. Our products are brought to life by diverse, talented, performance driven people who are passionate about animals. All of which makes us one of the most rewarding employers in our field.\r\n\r\nGroup Leader Companion Animal Internal Medicine Research\r\n\r\nNovartis Tiergesundheit AG, CH-1566 St. Aubin/Fribourg, Switzerland\r\n\r\nJob Description\r\n\xe2\x80\xa2\tLead the scientific and clinical evaluation of the research orthopaedics/arthritis projects and drive them to timely decision points.\r\n\xe2\x80\xa2\t Responsible for the quality and the progression of the research pipeline in the orthopedics disease category. \r\n\xe2\x80\xa2\tAct as a cross functional team member and/or lead local multi- disciplinary research project teams \r\n\xe2\x80\xa2\tBuild and maintain a scientifically sound internal orthopaedics expertise \r\n\xe2\x80\xa2\tProvide guidance to Lead Finding/BD&L on external opportunities in orthopaedics and internal medicine. \r\n\xe2\x80\xa2\tLiaise with Global Marketing to support the business strategy. \r\n\xe2\x80\xa2\tAct as technical expert in the domain of companion animal medicine and in particular orthopaedics. \r\n\xe2\x80\xa2\tLead a small team of direct reports including objective setting performance evaluations and development planning. \r\n\xe2\x80\xa2\tEnsure compliance with external and internal guidelines (e.g. SOP\xe2\x80\x99s GxP HSE AW) \r\n\xe2\x80\xa2\tReport and present scientific results internally and externally. Represent the company at meetings/symposium or meeting s with KOLs in the field of internal medicine\r\n\r\nMinimum requirements\r\n\xe2\x80\xa2\tDVM+PhD \r\n\xe2\x80\xa2\tSpecialist training in anaesthesia or orthopaedics. \r\n\xe2\x80\xa2\tEnglish (fluent) \xe2\x80\x93 further languages desirable (French) \r\n\xe2\x80\xa2\t2-5 years of R&D experience (post-graduate) in internal medicine in academia or industry \r\n\xe2\x80\xa2\tScientific expert in orthopedics \r\n\xe2\x80\xa2\tExperience in the clinical evaluation of drugs \r\n\xe2\x80\xa2\tKnowledge of the Animal Health Industry and its regulatory environment \r\n\xe2\x80\xa2\tProven track record on leading multiple projects and solving complex issues \r\n\xe2\x80\xa2\tAbility to work with cross-functional teams in a matrix environment \r\n\xe2\x80\xa2\tExcellent oral and written communication skills\r\n\r\nThe reward\r\nThe opportunity to work for one of the leading companies in the Animal Health industry, to work in an interesting and challenging international context, and to work with a highly professional team. We offer a competitive salary and benefits.\r\n'
p28
sS'cv_instructions'
p29
S'Further information is available at <a href="http://www.novartis.com/careers">www.novartis.com/careers</a>, job 86132BR'
p30
sS'cv_title'
p31
S''
sS'expires'
p32
(lp33
S'11'
p34
aS'1'
aS'2011'
p35
asS'cv_name'
p36
S''
sS'cv_state'
p37
S''
sS'cv_addr1'
p38
S''
sS'cv_addr3'
p39
S''
sS'cv_addr2'
p40
S''
sS'cv_country'
p41
S''
sS'cv_email'
p42
S''
sS'web_link_url'
p43
S'https://sjobs.brassring.com/2057/ASP/TG/cim_jobdetail.asp?partnerid=13617&siteid=5260&jobid=1617954&codes=novcom'
p44
sS'contact1_email'
p45
S''
s.