(dp1
S'date'
p2
(lp3
S'1'
aS'7'
aS'2010'
p4
asS'datafile'
p5
S'acva_minutes_2010_1_7.doc'
p6
sS'summary'
p7
S'IVECCS and ACVA meeting program, Delinquent Dues, International aspects of\r\nveterinary accreditation, Report from the Credentials Committee, Banfield\r\nConsultation, Monitoring Guidelines publication in JAVMA, Bylaws Amendment\r\nCommittee, Foundation Committee, Website, American Association of Veterinary\r\nMedical Colleges request for financial support, Job/Task Analysis Committee,\r\nABVS re-certification'
p8
s.