(dp1
S'date'
p2
(lp3
S'2'
aS'4'
aS'2010'
p4
asS'datafile'
p5
S'acva_minutes_2010_2_4.doc'
p6
sS'summary'
p7
S'IVEECS and ACVA congress program, Delinquent Dues, Recertification-Revalidation, Speaker liaisons for major conferences, Banfield Consultation, Monitoring Guidelines publication in JAVMA, Bylaws Amendment Committee, Foundation Committee, Website, Exam Review Committee'
p8
s.