(dp1
S'date'
p2
(lp3
S'3'
aS'4'
aS'2010'
p4
asS'datafile'
p5
S'acva_minutes_2010_3_4.doc'
p6
sS'summary'
p7
S'ABVS, IVECCS and ACVA program, Delinquent Dues, Replacement of Peter Pascoe as VAA editor, What is the direction of the ACVA?'
p8
s.