(dp1
S'date'
p2
(lp3
S'3'
aS'25'
p4
aS'2010'
p5
asS'datafile'
p6
S'acva_minutes_2010_3_25.doc'
p7
sS'summary'
p8
S'Special teleconference re: What is the direction of the ACVA? Do we need a mission statement?'
p9
s.