(dp1
S'date'
p2
(lp3
S'4'
aS'8'
aS'2010'
p4
asS'datafile'
p5
S'acva_minutes_2010_4_8.doc'
p6
sS'summary'
p7
S'Examination and multiple choice questions, Possible Mission Statements, Website, Recertification, ACVA 2010 Congress: 35th Anniversary, Business Meeting, ACVA 2011 Congress, Student Anesthesia Clubs'
p8
s.