(dp1
S'date'
p2
(lp3
S'5'
aS'6'
aS'2010'
p4
asS'datafile'
p5
S'acva_minutes_2010_5_6.doc'
p6
sS'summary'
p7
S'Mission, Goals of the ACVA and Strategic plan, Recertification System, ACVA 2011 congress'
p8
s.