(dp1
S'date'
p2
(lp3
S'7'
aS'8'
aS'2010'
p4
asS'datafile'
p5
S'acva_minutes_2010_7_8.doc'
p6
sS'summary'
p7
S'Special meeting of the BOD. Topics discussed include: Annual meeting rebate, Strategic plan objectives'
p8
s.