(dp1
S'date'
p2
(lp3
S'8'
aS'5'
aS'2010'
p4
asS'datafile'
p5
S'acva_minutes_2010_8_5'
p6
sS'summary'
p7
S'Bylaws amendment, strategic plan, re-certification system, VAA editorial board, ACVA representation on WCVA Council, 35th anniversary celebration, ACVA foundation'
p8
s.