(dp1
S'date'
p2
(lp3
S'9'
aS'2'
aS'2010'
p4
asS'datafile'
p5
S'acva_minutes_2010_9_2.doc'
p6
sS'summary'
p7
S'Bylaws and constitutional amendments, Annual foundation committee report, website, re-certification, exam review committee, annual meeting committee'
p8
s.