(dp1
S'date'
p2
(lp3
S'10'
p4
aS'8'
aS'2010'
p5
asS'datafile'
p6
S'acva_minutes_2010_10_8.doc'
p7
sS'summary'
p8
S'Please note that this was an unofficial meeting of the BOD due to a lack of a quorum. \r\n\r\nTopics discussed: Annual Meeting and education committee, time and location of written exam, WCVA.'
p9
s.