(dp1
S'date'
p2
(lp3
S'11'
p4
aS'11'
p5
aS'2010'
p6
asS'datafile'
p7
S'acva_minutes_2010_11_11.doc'
p8
sS'summary'
p9
S'Items discussed included: ACVA Foundation, annual meeting and education committees, website, and bylaws and constitutional amendments.'
p10
s.