(dp1
S'date'
p2
(lp3
S'12'
p4
aS'2'
aS'2010'
p5
asS'datafile'
p6
S'acva_minutes_2010_12_2.doc'
p7
sS'summary'
p8
S'ABVS representation, annual meeting committee, website, and constitutional amendments.'
p9
s.