(dp1
S'date'
p2
(lp3
S'1'
aS'6'
aS'2011'
p4
asS'datafile'
p5
S'acva_minutes_2011_1_6.doc'
p6
sS'summary'
p7
S'New Directors were welcomed. The report from the 2010 Credentials Committee was accepted. A disclaimer for the website and the Foundation were discussed.'
p8
s.