(dp1
S'date'
p2
(lp3
S'2'
aS'3'
aS'2011'
p4
asS'datafile'
p5
S'acva_minutes_2011_2_3.doc'
p6
sS'summary'
p7
S'The ACVA Foundation, a proposal to establish a Service Award, Constitutional Amendments, the 2012 Annual Meeting/WCVA dilemma and proposed changes to the VAA editorial board were discussed.'
p8
s.