(dp1
S'date'
p2
(lp3
S'3'
aS'3'
aS'2011'
p4
asS'datafile'
p5
S'acva_minutes_2011_3_3.doc'
p6
sS'summary'
p7
S'Recommendations from the 2010 Credentials Committee, Constitutional Amendments, the 2010 Financial Report and the proposal of a Leslie Hall Memorial Lecture Series were discussed.'
p8
s.