(dp1
S'date'
p2
(lp3
S'4'
aS'7'
aS'2011'
p4
asS'datafile'
p5
S'acva_minutes_2011_4_7.doc'
p6
sS'summary'
p7
S"A quorum was not present. Those attending completed discussion of the Constitutional Amendments. A job description for the ACVA's ABVS representative, extending the ACVA Student Clinical Proficiency Award to Caribbean veterinary schools were discussed in fair detail while the 2010 Financial report, Exam Review Committee, Essay Subcommittee and MCQ databank manager position were touched on."
p8
s.