(dp1
S'date'
p2
(lp3
S'6'
aS'2'
aS'2011'
p4
asS'datafile'
p5
S'acva_minutes_2011_6_2.doc'
p6
sS'summary'
p7
S"The presentation of amendments to the Constitution to the membership was discussed and proposed amendments to the Bylaws were introduced. An update on ACVA participation in the ACVS Symposium was made. The Residency Training Committee's recommendations on guidelines for resident on-call duty were returned to the Committee for revision. Increases in dues and exam fees were discussed in light of the ACVA fiscal deficit. "
p8
s.