(dp1
S'date'
p2
(lp3
S'7'
aS'7'
aS'2011'
p4
asS'datafile'
p5
S'acva_minutes_2011_7_7.doc'
p6
sS'summary'
p7
S'An increase in the exam fees was approved and methods of containing exam costs discussed. The remainder of the 3 hour teleconference addressed amendments to the Bylaws.'
p8
s.