(dp1
S'ACVA_ABVS_Annual_Report_2009_w_o_appendices.doc'
p2
S'ABVS 2009 Annual Report'
p3
sS'ACVA_2010_Annual_Meeting_Minutes.doc'
p4
S'2010 ACVA Annual Meeting Minutes'
p5
sS'ACVA_Year_End_Financial_Report_2010.doc'
p6
S'ACVA 2010 Year-End Financial Report'
p7
sS'ACVA_Financials_2009.doc'
p8
S'2009 End-of-Year ACVA Financial Report'
p9
sS'ACVA_Annual_Biz_Mtg_Mins_2009.doc'
p10
S'2009 ACVA Annual Meeting Minutes'
p11
sS'2006_ACVA_5_yr_ABVS_report.doc'
p12
S'ABVS 2006 5-Year report'
p13
sS'ACVA_ABVS_annual_report_2007.rtf'
p14
S'ABVS 2007 Annual Report'
p15
sS'ACVA_ABVS_Annual_Report_2010_complete.doc'
p16
S'ABVS 2010 Annual Report'
p17
sS'ACVA_ABVS_annual_report_2008.rtf'
p18
S'ABVS 2008 Annual Report'
p19
s.