(dp1
S'username'
p2
S'sberry'
p3
sS'description'
p4
S'Deadline for submitting abstracts for the 2010 ACVA Annual Meeting'
p5
sS'title'
p6
S'Abstract Submission Deadline for 2010 ACVA Annual Meeting'
p7
sS'orig_id'
p8
S'1272672000'
p9
sS'link_text'
p10
S'Online abstract submission'
p11
sS'visibility'
p12
S'restricted'
p13
sS'date'
p14
(lp15
S'5'
aS'1'
aS'2010'
p16
asS'link_url'
p17
S'https://cvmsecure.missouri.edu/ACVA/Abstracts/2010/Abstracts/'
p18
s.