(dp1
S'username'
p2
S'sberry'
p3
sS'description'
p4
S'Residency Training Programs should be registered annually.'
p5
sS'title'
p6
S'Registration of Residency Training Programs'
p7
sS'visibility'
p8
S'restricted'
p9
sS'local_doc_text'
p10
S'Residency Registration Form'
p11
sS'local_doc_link'
p12
S'/docs/ACVA_Training_Form_2010.doc'
p13
sS'date'
p14
(lp15
S'7'
aS'1'
aS'2010'
p16
as.