(dp1
S'username'
p2
S'sberry'
p3
sS'date'
p4
(lp5
S'9'
aS'2'
aS'2010'
p6
asS'description'
p7
S'The AVA Autumn 2010 Meeting will be held at the Petros M. Nomikos Conference Centre, in the island of Santorini, Greece from September 2nd (training day) until September 4th, 2010. '
p8
sS'visibility'
p9
S'all'
p10
sS'title'
p11
S'AVA Autumn 2010 Meeting'
p12
s.