(dp1
S'username'
p2
S'sberry'
p3
sS'date'
p4
(lp5
S'9'
aS'9'
aS'2010'
p6
asS'description'
p7
S'The ACVA oral examination will be administered on Thursday through Saturday, September 9 - 11, 2010 at the Grand Hyatt in San Antonio, TX.'
p8
sS'visibility'
p9
S'all'
p10
sS'title'
p11
S'ACVA Oral Examination'
p12
s.