(dp1
S'username'
p2
S'sberry'
p3
sS'description'
p4
S'Annual dues are payable January 1, are to be paid by April 1, and become delinquent July 1. If not paid by December 31, the member becomes inactive. There is a $50 fine for any dues paid after October 1st.'
p5
sS'title'
p6
S'Annual Dues'
p7
sS'orig_id'
p8
S'1293840000'
p9
sS'link_text'
p10
S''
sS'visibility'
p11
S'restricted'
p12
sS'date'
p13
(lp14
S'1'
aS'1'
aS'2011'
p15
asS'link_url'
p16
S''
s.