(dp1
S'username'
p2
S'ldonaldson'
p3
sS'description'
p4
S'On Thursday, September 15, 2011, the ACVA Annual Meeting will include a full day of 2 simulataneous sessions of scientific abstract presentations on original research in veterinary anesthesia and pain management. \r\n\r\nDetails on abstract content and format are available at the abstract submission website listed below.\r\n\r\nAny questions may be addressed to either Dr. Craig Mosley or Dr. Daniel Pang at acva.abstracts@gmail.com.'
p5
sS'title'
p6
S'Abstract Submission for the ACVA Annual Meeting'
p7
sS'orig_id'
p8
S'1304121600'
p9
sS'link_text'
p10
S'Submit a scientific abstract for the ACVA Meeting'
p11
sS'visibility'
p12
S'all'
p13
sS'date'
p14
(lp15
S'4'
aS'30'
p16
aS'2011'
p17
asS'link_url'
p18
S'http://precis2.preciscentral.com/Link.aspx?ID=33C7D76ECC3A116A'
p19
s.