(dp1
S'username'
p2
S'sberry'
p3
sS'description'
p4
S'The 2011 ACVA written exam dates are Friday, May 13th and Saturday, May 14th, 2011. The exam will be held at the Embassy Suites in Lexington, KY.'
p5
sS'title'
p6
S'ACVA Written Exam'
p7
sS'orig_id'
p8
S'1305244800'
p9
sS'link_text'
p10
S''
sS'visibility'
p11
S'restricted'
p12
sS'date'
p13
(lp14
S'5'
aS'13'
p15
aS'2011'
p16
asS'link_url'
p17
S''
s.