(dp1
S'username'
p2
S'sberry'
p3
sS'description'
p4
S'Gain New Perspective from a Mile High!  Join us in Denver, CO, June 15-18 as we celebrate our mission to enhance animal and human health via training, education, and discovery at the 2011 ACVIM Forum the premier event featuring leading-edge veterinary internal medicine, strong educational programming, and unparalleled networking opportunities.  Visit www.ACVIMForum.org for details.\r\n\r\nLocation: The Colorado Convention Center, Denver, Colorado\r\nEmail:       ACVIM@acvim.org\r\nPhone:     800-245-9081\r\n'
p5
sS'title'
p6
S'2011 ACVIM Forum'
p7
sS'orig_id'
p8
S'1308096000'
p9
sS'link_text'
p10
S'ACVIM Forum'
p11
sS'visibility'
p12
S'all'
p13
sS'date'
p14
(lp15
S'6'
aS'15'
p16
aS'2011'
p17
asS'link_url'
p18
S'http:// www.ACVIMForum.org'
p19
s.