(dp1
S'username'
p2
S'sberry'
p3
sS'description'
p4
S'Resident training programs should be registered annually. The training program registration form can be found in the Diplomates section under documents and forms in the navigation menu to the left.'
p5
sS'title'
p6
S'Residency Training Program Registration'
p7
sS'link_url'
p8
S''
sS'link_text'
p9
S''
sS'visibility'
p10
S'restricted'
p11
sS'date'
p12
(lp13
S'7'
aS'1'
aS'2011'
p14
as.