(dp1
S'username'
p2
S'sberry'
p3
sS'description'
p4
S'Credentials submission in application to sit the ACVA certifying exam next May are due September 1st. Instructions can be found <a href="http://acva.org/docs/Welcome">in the Candidate Section</a> or by contacting <a href="mailto:ldonldsn@earthlink.net">Dr. Lydia Donaldson</a>.'
p5
sS'title'
p6
S'Candidate Credentials Submission'
p7
sS'orig_id'
p8
S'1314835200'
p9
sS'link_text'
p10
S''
sS'visibility'
p11
S'restricted'
p12
sS'date'
p13
(lp14
S'9'
aS'1'
aS'2011'
p15
asS'link_url'
p16
S''
s.