(dp1
S'username'
p2
S'sberry'
p3
sS'description'
p4
S'The ACVA will be meeting with IVECCS again this year.  The meeting will be held September 14-17 at the Gaylord Opryland in Nashville, TN. ACVA abstract presentations will be on Thursday, the 15th, the ACVA Business Meeting will be held the evening of the 15th, and the ACVA special focus/state-of-the-art lectures will be presented on Friday, the 16th of September 2011. Full ACVA meeting details can be found <a href="http://acva.org/Annual/">here</a>.'
p5
sS'title'
p6
S'2011 ACVA Annual Meeting'
p7
sS'orig_id'
p8
S'1315958400'
p9
sS'link_text'
p10
S'2011 ACVA / IVECCS Meeting '
p11
sS'visibility'
p12
S'all'
p13
sS'date'
p14
(lp15
S'9'
aS'14'
p16
aS'2011'
p17
asS'link_url'
p18
S'http://www.2011.iveccs.org/'
p19
s.