(dp1
S'username'
p2
S'ldonaldson'
p3
sS'description'
p4
S'The ACVA Oral Exam will take place over the 2 days before the ACVA meeting with IVECCS (Tuesday, September 13th, and Wednesday, September 14th) at the Gaylord Opryland in Nashville. '
p5
sS'title'
p6
S'ACVA Oral Exam'
p7
sS'orig_id'
p8
S'1315872000'
p9
sS'link_text'
p10
S''
sS'visibility'
p11
S'restricted'
p12
sS'date'
p13
(lp14
S'9'
aS'13'
p15
aS'2011'
p16
asS'link_url'
p17
S''
s.