(dp1
S'username'
p2
S'sberry'
p3
sS'description'
p4
S'On behalf of the Liverpool committee, it is my pleasure to invite you to the Autumn AVA congress from 14th - 16th September 2011. \r\n\r\n\r\nThe training day is on 14th September and will cover statistics for residents. The meeting is to be held in Liverpool\'s historic Albert Dock, at the Tate Liverpool Gallery and the Merseyside Maritime Museum.   \r\n\r\n\r\nThe abstract submission deadline is Friday 8thJuly 2011. If you have any questions, please contact us by <a href="mailto:avaliverpool2011@gmail.com">email</a>.\r\n'
p5
sS'title'
p6
S'Autumn AVA congress'
p7
sS'link_url'
p8
S'http://www.liverpoolavacongress2011.appspot.com'
p9
sS'link_text'
p10
S'Please visit our website for further information'
p11
sS'visibility'
p12
S'all'
p13
sS'date'
p14
(lp15
S'9'
aS'14'
p16
aS'2011'
p17
as.