(dp1
S'username'
p2
S'ldonaldson'
p3
sS'description'
p4
S'November 3-5, 2011\r\nHyatt Regency Chicago\r\nChicago, IL'
p5
sS'title'
p6
S'2011 ACVS Veterinary Symposium'
p7
sS'link_url'
p8
S''
sS'link_text'
p9
S''
sS'visibility'
p10
S'all'
p11
sS'date'
p12
(lp13
S'11'
p14
aS'3'
aS'2011'
p15
as.