(dp1
S'username'
p2
S'sberry'
p3
sS'description'
p4
S'This is to announce the preliminary program for the 29th Veterinary Comparative Respiratory Society symposium to be held in collaboration with the University of Veterinary Medicine Vienna.\r\n\r\nMain Theme:  NON-INVASIVE LUNG FUNCTION TESTING\r\n\r\nPreliminary Program:\r\nWednesday, Nov 2:  Workshop and laboratory tours\r\nThursday, Nov 3-Saturday Nov 5: Invited lectures and presentation of abstracts\r\n\r\nThe following topics and speakers are confirmed:\r\nFrancesco Staffieri, DVM - Pulmonary Atelectasis and Gas Exchange,\r\nStephan H. B\xc3\xb6hm, MD - Electrical Impedance Tomography,\r\nGerardo Tusman, MD - Single Breath Analysis,\r\nReinhard Hirt, DVM - Whole Body Plethysmography in Small Animals\r\nGilles Dupr\xc3\xa9, DVM - Brachycephalic Syndrome in Dogs,\r\nMartin Steurer, MD - Obstructive Sleep Apnoea in Humans.\r\n\r\nProvisional deadline for abstracts submission: 15th September 2011 \t\t\r\n\r\nContact <a href = "mailto: susan.brogan@tufts.edu">susan.brogan@tufts.edu</a> for more information.\r\n\r\nThe symposium in Vienna will be hosted by <a href="mailto: riedelberger@vetmeduni.ac.at">Dr. Klaus Riedelberger</a>.'
p5
sS'title'
p6
S'29th Veterinary Comparative Respiratory  Society Symposium'
p7
sS'orig_id'
p8
S'1320192000'
p9
sS'link_text'
p10
S''
sS'visibility'
p11
S'all'
p12
sS'date'
p13
(lp14
S'11'
p15
aS'2'
aS'2011'
p16
asS'link_url'
p17
S''
s.