(dp1
S'username'
p2
S'sberry'
p3
sS'description'
p4
S'11th World Congress of Veterinary Anaesthesiologists at the Cape Town International Convention Centre, Cape Town, South Africa from September 24 - 26, 2012.'
p5
sS'title'
p6
S'World Congress of Veterinary Anaesthesiology'
p7
sS'orig_id'
p8
S'1348358400'
p9
sS'link_text'
p10
S'WCVA 2012'
p11
sS'visibility'
p12
S'all'
p13
sS'date'
p14
(lp15
S'9'
aS'23'
p16
aS'2012'
p17
asS'link_url'
p18
S'http://wcva2012.com/'
p19
s.