(dp1
S'ACVA_Case_Activities_Log_template_July_2010.XLS'
p2
S'Case & Activities Log'
p3
sS'ACVA_Candidate_Reexam_Form.doc'
p4
S'Candidate Re-Examination Form'
p5
sS'ACVA_Foundation_Scholarship.doc'
p6
S'ACVA Foundation Scholarship'
p7
sS'Application_for_re_examination_2011.doc'
p8
S'Candidate Re-Examination Form'
p9
sS'ACVA_Resident_Registration_Form.doc'
p10
S'New Resident Registration Form'
p11
sS'Suggested_Resources_for_Exam_RTC_2008.doc'
p12
S'Suggested Resources for the ACVA Exam'
p13
sS'ACVA_Training_Standards_2009.doc'
p14
S'Residency Training Standards'
p15
sS'Instructions_for_Exam_Candidates_2011.doc'
p16
S'Instructions for Candidates Applying for ACVA Certification '
p17
sS'ACVA_Residency_Timeline_2010.xls'
p18
S'Residency Timeline'
p19
sS'Application_for_ACVA_Certifying_Exam_2011.doc'
p20
S'ACVA Application for Certifying Exam'
p21
s.